target datalayout = "e-m:e-p270:32:32-p271:32:32-p272:64:64-i64:64-i128:128-f80:128-n8:16:32:64-S128"
target triple = "x86_64-pc-linux-gnu"

%"class.__gnu_cxx::__normal_iterator" = type { ptr }

; Function Attrs: inlinehint mustprogress uwtable
define linkonce_odr hidden noundef zeroext i1 @_ZN5boost6spirit2qi6detail11extract_intIjLj10ELj1ELin1ENS2_20positive_accumulatorILj10EEELb0ELb0EE5parseIN9__gnu_cxx17__normal_iteratorIPKcNSt7__cxx1112basic_stringIcSt11char_traitsIcESaIcEEEEEjEEbRT_RKSJ_RT0_(ptr noundef nonnull align 8 dereferenceable(8) %0, ptr noundef nonnull align 8 dereferenceable(8) %1, ptr noundef nonnull align 4 dereferenceable(4) %2) #0 comdat align 2 {
  %4 = alloca ptr, align 8
  %5 = alloca ptr, align 8
  %6 = alloca ptr, align 8
  store ptr %0, ptr %4, align 8, !tbaa !3
  store ptr %1, ptr %5, align 8, !tbaa !3
  store ptr %2, ptr %6, align 8, !tbaa !3
  %7 = load ptr, ptr %4, align 8, !tbaa !3
  %8 = load ptr, ptr %5, align 8, !tbaa !3
  %9 = load ptr, ptr %6, align 8, !tbaa !3
  %10 = call noundef zeroext i1 @_ZN5boost6spirit2qi6detail11extract_intIjLj10ELj1ELin1ENS2_20positive_accumulatorILj10EEELb0ELb0EE10parse_mainIN9__gnu_cxx17__normal_iteratorIPKcNSt7__cxx1112basic_stringIcSt11char_traitsIcESaIcEEEEEjEEbRT_RKSJ_RT0_(ptr noundef nonnull align 8 dereferenceable(8) %7, ptr noundef nonnull align 8 dereferenceable(8) %8, ptr noundef nonnull align 4 dereferenceable(4) %9)
  ret i1 %10
}

; Function Attrs: mustprogress nounwind uwtable
define linkonce_odr hidden noundef nonnull align 8 dereferenceable(8) ptr @_ZNK9__gnu_cxx17__normal_iteratorIPKcNSt7__cxx1112basic_stringIcSt11char_traitsIcESaIcEEEE4baseEv(ptr noundef nonnull align 8 dereferenceable(8) %0) #3 comdat align 2 {
  %2 = alloca ptr, align 8
  store ptr %0, ptr %2, align 8, !tbaa !3
  %3 = load ptr, ptr %2, align 8
  %4 = getelementptr inbounds nuw %"class.__gnu_cxx::__normal_iterator", ptr %3, i32 0, i32 0
  ret ptr %4
}

; Function Attrs: inlinehint mustprogress nounwind uwtable
define linkonce_odr noundef zeroext i1 @_ZN9__gnu_cxxneIPKcNSt7__cxx1112basic_stringIcSt11char_traitsIcESaIcEEEEEbRKNS_17__normal_iteratorIT_T0_EESE_(ptr noundef nonnull align 8 dereferenceable(8) %0, ptr noundef nonnull align 8 dereferenceable(8) %1) #5 comdat {
  %3 = alloca ptr, align 8
  %4 = alloca ptr, align 8
  store ptr %0, ptr %3, align 8, !tbaa !3
  store ptr %1, ptr %4, align 8, !tbaa !3
  %5 = load ptr, ptr %3, align 8, !tbaa !3
  %6 = call noundef nonnull align 8 dereferenceable(8) ptr @_ZNK9__gnu_cxx17__normal_iteratorIPKcNSt7__cxx1112basic_stringIcSt11char_traitsIcESaIcEEEE4baseEv(ptr noundef nonnull align 8 dereferenceable(8) %5) #9
  %7 = load ptr, ptr %6, align 8, !tbaa !3
  %8 = load ptr, ptr %4, align 8, !tbaa !3
  %9 = call noundef nonnull align 8 dereferenceable(8) ptr @_ZNK9__gnu_cxx17__normal_iteratorIPKcNSt7__cxx1112basic_stringIcSt11char_traitsIcESaIcEEEE4baseEv(ptr noundef nonnull align 8 dereferenceable(8) %8) #9
  %10 = load ptr, ptr %9, align 8, !tbaa !3
  %11 = icmp ne ptr %7, %10
  ret i1 %11
}

; Function Attrs: inlinehint mustprogress uwtable
define linkonce_odr hidden noundef zeroext i1 @_ZN5boost6spirit2qi12extract_uintIjLj10ELj1ELin1ELb0ELb0EE4callIN9__gnu_cxx17__normal_iteratorIPKcNSt7__cxx1112basic_stringIcSt11char_traitsIcESaIcEEEEEEEbRT_RKSG_Rj(ptr noundef nonnull align 8 dereferenceable(8) %0, ptr noundef nonnull align 8 dereferenceable(8) %1, ptr noundef nonnull align 4 dereferenceable(4) %2) #0 comdat align 2 {
  %4 = alloca i1, align 1
  %5 = alloca ptr, align 8
  %6 = alloca ptr, align 8
  %7 = alloca ptr, align 8
  %8 = alloca %"class.__gnu_cxx::__normal_iterator", align 8
  %9 = alloca i32, align 4
  store ptr %0, ptr %5, align 8, !tbaa !3
  store ptr %1, ptr %6, align 8, !tbaa !3
  store ptr %2, ptr %7, align 8, !tbaa !3
  %10 = load ptr, ptr %5, align 8, !tbaa !3
  %11 = load ptr, ptr %6, align 8, !tbaa !3
  %12 = call noundef zeroext i1 @_ZN9__gnu_cxxeqIPKcNSt7__cxx1112basic_stringIcSt11char_traitsIcESaIcEEEEEbRKNS_17__normal_iteratorIT_T0_EESE_(ptr noundef nonnull align 8 dereferenceable(8) %10, ptr noundef nonnull align 8 dereferenceable(8) %11) #9
  br i1 %12, label %13, label %14

13:                                               ; preds = %3
  store i1 false, ptr %4, align 1
  br label %24

14:                                               ; preds = %3
  call void @llvm.lifetime.start.p0(i64 8, ptr %8) #9
  %15 = load ptr, ptr %5, align 8, !tbaa !3
  call void @llvm.memcpy.p0.p0.i64(ptr align 8 %8, ptr align 8 %15, i64 8, i1 false), !tbaa.struct !17
  %16 = load ptr, ptr %5, align 8, !tbaa !3
  %17 = load ptr, ptr %6, align 8, !tbaa !3
  %18 = load ptr, ptr %7, align 8, !tbaa !3
  %19 = call noundef zeroext i1 @_ZN5boost6spirit2qi6detail11extract_intIjLj10ELj1ELin1ENS2_20positive_accumulatorILj10EEELb0ELb0EE5parseIN9__gnu_cxx17__normal_iteratorIPKcNSt7__cxx1112basic_stringIcSt11char_traitsIcESaIcEEEEEjEEbRT_RKSJ_RT0_(ptr noundef nonnull align 8 dereferenceable(8) %16, ptr noundef nonnull align 8 dereferenceable(8) %17, ptr noundef nonnull align 4 dereferenceable(4) %18)
  br i1 %19, label %22, label %20

20:                                               ; preds = %14
  %21 = load ptr, ptr %5, align 8, !tbaa !3
  call void @llvm.memcpy.p0.p0.i64(ptr align 8 %21, ptr align 8 %8, i64 8, i1 false), !tbaa.struct !17
  store i1 false, ptr %4, align 1
  store i32 1, ptr %9, align 4
  br label %23

22:                                               ; preds = %14
  store i1 true, ptr %4, align 1
  store i32 1, ptr %9, align 4
  br label %23

23:                                               ; preds = %22, %20
  call void @llvm.lifetime.end.p0(i64 8, ptr %8) #9
  br label %24

24:                                               ; preds = %23, %13
  %25 = load i1, ptr %4, align 1
  ret i1 %25
}

; Function Attrs: mustprogress nounwind uwtable
define linkonce_odr hidden noundef zeroext i1 @_ZN5boost3log11v2_mt_posix5sinks9anonymous16file_char_traitsIcE8is_digitEc(i8 noundef signext %0) #3 comdat align 2 {
  %2 = alloca i8, align 1
  store i8 %0, ptr %2, align 1, !tbaa !12
  %3 = load i8, ptr %2, align 1, !tbaa !12
  %4 = sext i8 %3 to i32
  %5 = call i32 @isdigit(i32 noundef %4) #28
  %6 = icmp ne i32 %5, 0
  ret i1 %6
}

; Function Attrs: mustprogress nounwind uwtable
define linkonce_odr hidden noundef nonnull align 8 dereferenceable(8) ptr @_ZN9__gnu_cxx17__normal_iteratorIPKcNSt7__cxx1112basic_stringIcSt11char_traitsIcESaIcEEEEppEv(ptr noundef nonnull align 8 dereferenceable(8) %0) #3 comdat align 2 {
  %2 = alloca ptr, align 8
  store ptr %0, ptr %2, align 8, !tbaa !3
  %3 = load ptr, ptr %2, align 8
  %4 = getelementptr inbounds nuw %"class.__gnu_cxx::__normal_iterator", ptr %3, i32 0, i32 0
  %5 = load ptr, ptr %4, align 8, !tbaa !15
  %6 = getelementptr inbounds nuw i8, ptr %5, i32 1
  store ptr %6, ptr %4, align 8, !tbaa !15
  ret ptr %3
}

; Function Attrs: mustprogress nounwind uwtable
define linkonce_odr hidden noundef nonnull align 1 dereferenceable(1) ptr @_ZNK9__gnu_cxx17__normal_iteratorIPKcNSt7__cxx1112basic_stringIcSt11char_traitsIcESaIcEEEEdeEv(ptr noundef nonnull align 8 dereferenceable(8) %0) #3 comdat align 2 {
  %2 = alloca ptr, align 8
  store ptr %0, ptr %2, align 8, !tbaa !3
  %3 = load ptr, ptr %2, align 8
  %4 = getelementptr inbounds nuw %"class.__gnu_cxx::__normal_iterator", ptr %3, i32 0, i32 0
  %5 = load ptr, ptr %4, align 8, !tbaa !15
  ret ptr %5
}

; Function Attrs: inlinehint mustprogress nounwind uwtable
define linkonce_odr noundef zeroext i1 @_ZN9__gnu_cxxeqIPKcNSt7__cxx1112basic_stringIcSt11char_traitsIcESaIcEEEEEbRKNS_17__normal_iteratorIT_T0_EESE_(ptr noundef nonnull align 8 dereferenceable(8) %0, ptr noundef nonnull align 8 dereferenceable(8) %1) #5 comdat {
  %3 = alloca ptr, align 8
  %4 = alloca ptr, align 8
  store ptr %0, ptr %3, align 8, !tbaa !3
  store ptr %1, ptr %4, align 8, !tbaa !3
  %5 = load ptr, ptr %3, align 8, !tbaa !3
  %6 = call noundef nonnull align 8 dereferenceable(8) ptr @_ZNK9__gnu_cxx17__normal_iteratorIPKcNSt7__cxx1112basic_stringIcSt11char_traitsIcESaIcEEEE4baseEv(ptr noundef nonnull align 8 dereferenceable(8) %5) #9
  %7 = load ptr, ptr %6, align 8, !tbaa !3
  %8 = load ptr, ptr %4, align 8, !tbaa !3
  %9 = call noundef nonnull align 8 dereferenceable(8) ptr @_ZNK9__gnu_cxx17__normal_iteratorIPKcNSt7__cxx1112basic_stringIcSt11char_traitsIcESaIcEEEE4baseEv(ptr noundef nonnull align 8 dereferenceable(8) %8) #9
  %10 = load ptr, ptr %9, align 8, !tbaa !3
  %11 = icmp eq ptr %7, %10
  ret i1 %11
}

; Function Attrs: mustprogress uwtable
define hidden noundef zeroext i1 @_ZN5boost3log11v2_mt_posix5sinks9anonymous25parse_counter_placeholderERN9__gnu_cxx17__normal_iteratorIPKcNSt7__cxx1112basic_stringIcSt11char_traitsIcESaIcEEEEESE_Rj(ptr noundef nonnull align 8 dereferenceable(8) %0, ptr %1, ptr noundef nonnull align 4 dereferenceable(4) %2) #4 {
  %4 = alloca i1, align 1
  %5 = alloca %"class.__gnu_cxx::__normal_iterator", align 8
  %6 = alloca ptr, align 8
  %7 = alloca ptr, align 8
  %8 = alloca i8, align 1
  %9 = alloca i32, align 4
  %10 = getelementptr inbounds nuw %"class.__gnu_cxx::__normal_iterator", ptr %5, i32 0, i32 0
  store ptr %1, ptr %10, align 8
  store ptr %0, ptr %6, align 8, !tbaa !3
  store ptr %2, ptr %7, align 8, !tbaa !3
  %11 = load ptr, ptr %6, align 8, !tbaa !3
  %12 = call noundef zeroext i1 @_ZN9__gnu_cxxeqIPKcNSt7__cxx1112basic_stringIcSt11char_traitsIcESaIcEEEEEbRKNS_17__normal_iteratorIT_T0_EESE_(ptr noundef nonnull align 8 dereferenceable(8) %11, ptr noundef nonnull align 8 dereferenceable(8) %5) #9
  br i1 %12, label %13, label %14

13:                                               ; preds = %3
  store i1 false, ptr %4, align 1
  br label %96

14:                                               ; preds = %3
  call void @llvm.lifetime.start.p0(i64 1, ptr %8) #9
  %15 = load ptr, ptr %6, align 8, !tbaa !3
  %16 = call noundef nonnull align 1 dereferenceable(1) ptr @_ZNK9__gnu_cxx17__normal_iteratorIPKcNSt7__cxx1112basic_stringIcSt11char_traitsIcESaIcEEEEdeEv(ptr noundef nonnull align 8 dereferenceable(8) %15) #9
  %17 = load i8, ptr %16, align 1, !tbaa !12
  store i8 %17, ptr %8, align 1, !tbaa !12
  %18 = load i8, ptr %8, align 1, !tbaa !12
  %19 = sext i8 %18 to i32
  %20 = icmp eq i32 %19, 48
  br i1 %20, label %33, label %21

21:                                               ; preds = %14
  %22 = load i8, ptr %8, align 1, !tbaa !12
  %23 = sext i8 %22 to i32
  %24 = icmp eq i32 %23, 32
  br i1 %24, label %33, label %25

25:                                               ; preds = %21
  %26 = load i8, ptr %8, align 1, !tbaa !12
  %27 = sext i8 %26 to i32
  %28 = icmp eq i32 %27, 43
  br i1 %28, label %33, label %29

29:                                               ; preds = %25
  %30 = load i8, ptr %8, align 1, !tbaa !12
  %31 = sext i8 %30 to i32
  %32 = icmp eq i32 %31, 45
  br i1 %32, label %33, label %43

33:                                               ; preds = %29, %25, %21, %14
  %34 = load ptr, ptr %6, align 8, !tbaa !3
  %35 = call noundef nonnull align 8 dereferenceable(8) ptr @_ZN9__gnu_cxx17__normal_iteratorIPKcNSt7__cxx1112basic_stringIcSt11char_traitsIcESaIcEEEEppEv(ptr noundef nonnull align 8 dereferenceable(8) %34) #9
  %36 = load ptr, ptr %6, align 8, !tbaa !3
  %37 = call noundef zeroext i1 @_ZN9__gnu_cxxeqIPKcNSt7__cxx1112basic_stringIcSt11char_traitsIcESaIcEEEEEbRKNS_17__normal_iteratorIT_T0_EESE_(ptr noundef nonnull align 8 dereferenceable(8) %36, ptr noundef nonnull align 8 dereferenceable(8) %5) #9
  br i1 %37, label %38, label %39

38:                                               ; preds = %33
  store i1 false, ptr %4, align 1
  store i32 1, ptr %9, align 4
  br label %95

39:                                               ; preds = %33
  %40 = load ptr, ptr %6, align 8, !tbaa !3
  %41 = call noundef nonnull align 1 dereferenceable(1) ptr @_ZNK9__gnu_cxx17__normal_iteratorIPKcNSt7__cxx1112basic_stringIcSt11char_traitsIcESaIcEEEEdeEv(ptr noundef nonnull align 8 dereferenceable(8) %40) #9
  %42 = load i8, ptr %41, align 1, !tbaa !12
  store i8 %42, ptr %8, align 1, !tbaa !12
  br label %43

43:                                               ; preds = %39, %29
  %44 = load i8, ptr %8, align 1, !tbaa !12
  %45 = call noundef zeroext i1 @_ZN5boost3log11v2_mt_posix5sinks9anonymous16file_char_traitsIcE8is_digitEc(i8 noundef signext %44)
  br i1 %45, label %46, label %59

46:                                               ; preds = %43
  %47 = load ptr, ptr %6, align 8, !tbaa !3
  %48 = load ptr, ptr %7, align 8, !tbaa !3
  %49 = call noundef zeroext i1 @_ZN5boost6spirit2qi12extract_uintIjLj10ELj1ELin1ELb0ELb0EE4callIN9__gnu_cxx17__normal_iteratorIPKcNSt7__cxx1112basic_stringIcSt11char_traitsIcESaIcEEEEEEEbRT_RKSG_Rj(ptr noundef nonnull align 8 dereferenceable(8) %47, ptr noundef nonnull align 8 dereferenceable(8) %5, ptr noundef nonnull align 4 dereferenceable(4) %48)
  br i1 %49, label %51, label %50

50:                                               ; preds = %46
  store i1 false, ptr %4, align 1
  store i32 1, ptr %9, align 4
  br label %95

51:                                               ; preds = %46
  %52 = load ptr, ptr %6, align 8, !tbaa !3
  %53 = call noundef zeroext i1 @_ZN9__gnu_cxxeqIPKcNSt7__cxx1112basic_stringIcSt11char_traitsIcESaIcEEEEEbRKNS_17__normal_iteratorIT_T0_EESE_(ptr noundef nonnull align 8 dereferenceable(8) %52, ptr noundef nonnull align 8 dereferenceable(8) %5) #9
  br i1 %53, label %54, label %55

54:                                               ; preds = %51
  store i1 false, ptr %4, align 1
  store i32 1, ptr %9, align 4
  br label %95

55:                                               ; preds = %51
  %56 = load ptr, ptr %6, align 8, !tbaa !3
  %57 = call noundef nonnull align 1 dereferenceable(1) ptr @_ZNK9__gnu_cxx17__normal_iteratorIPKcNSt7__cxx1112basic_stringIcSt11char_traitsIcESaIcEEEEdeEv(ptr noundef nonnull align 8 dereferenceable(8) %56) #9
  %58 = load i8, ptr %57, align 1, !tbaa !12
  store i8 %58, ptr %8, align 1, !tbaa !12
  br label %59

59:                                               ; preds = %55, %43
  %60 = load i8, ptr %8, align 1, !tbaa !12
  %61 = sext i8 %60 to i32
  %62 = icmp eq i32 %61, 46
  br i1 %62, label %63, label %87

63:                                               ; preds = %59
  %64 = load ptr, ptr %6, align 8, !tbaa !3
  %65 = call noundef nonnull align 8 dereferenceable(8) ptr @_ZN9__gnu_cxx17__normal_iteratorIPKcNSt7__cxx1112basic_stringIcSt11char_traitsIcESaIcEEEEppEv(ptr noundef nonnull align 8 dereferenceable(8) %64) #9
  br label %66

66:                                               ; preds = %76, %63
  %67 = load ptr, ptr %6, align 8, !tbaa !3
  %68 = call noundef zeroext i1 @_ZN9__gnu_cxxneIPKcNSt7__cxx1112basic_stringIcSt11char_traitsIcESaIcEEEEEbRKNS_17__normal_iteratorIT_T0_EESE_(ptr noundef nonnull align 8 dereferenceable(8) %67, ptr noundef nonnull align 8 dereferenceable(8) %5) #9
  br i1 %68, label %69, label %74

69:                                               ; preds = %66
  %70 = load ptr, ptr %6, align 8, !tbaa !3
  %71 = call noundef nonnull align 1 dereferenceable(1) ptr @_ZNK9__gnu_cxx17__normal_iteratorIPKcNSt7__cxx1112basic_stringIcSt11char_traitsIcESaIcEEEEdeEv(ptr noundef nonnull align 8 dereferenceable(8) %70) #9
  %72 = load i8, ptr %71, align 1, !tbaa !12
  %73 = call noundef zeroext i1 @_ZN5boost3log11v2_mt_posix5sinks9anonymous16file_char_traitsIcE8is_digitEc(i8 noundef signext %72)
  br label %74

74:                                               ; preds = %69, %66
  %75 = phi i1 [ false, %66 ], [ %73, %69 ]
  br i1 %75, label %76, label %79

76:                                               ; preds = %74
  %77 = load ptr, ptr %6, align 8, !tbaa !3
  %78 = call noundef nonnull align 8 dereferenceable(8) ptr @_ZN9__gnu_cxx17__normal_iteratorIPKcNSt7__cxx1112basic_stringIcSt11char_traitsIcESaIcEEEEppEv(ptr noundef nonnull align 8 dereferenceable(8) %77) #9
  br label %66, !llvm.loop !13

79:                                               ; preds = %74
  %80 = load ptr, ptr %6, align 8, !tbaa !3
  %81 = call noundef zeroext i1 @_ZN9__gnu_cxxeqIPKcNSt7__cxx1112basic_stringIcSt11char_traitsIcESaIcEEEEEbRKNS_17__normal_iteratorIT_T0_EESE_(ptr noundef nonnull align 8 dereferenceable(8) %80, ptr noundef nonnull align 8 dereferenceable(8) %5) #9
  br i1 %81, label %82, label %83

82:                                               ; preds = %79
  store i1 false, ptr %4, align 1
  store i32 1, ptr %9, align 4
  br label %95

83:                                               ; preds = %79
  %84 = load ptr, ptr %6, align 8, !tbaa !3
  %85 = call noundef nonnull align 1 dereferenceable(1) ptr @_ZNK9__gnu_cxx17__normal_iteratorIPKcNSt7__cxx1112basic_stringIcSt11char_traitsIcESaIcEEEEdeEv(ptr noundef nonnull align 8 dereferenceable(8) %84) #9
  %86 = load i8, ptr %85, align 1, !tbaa !12
  store i8 %86, ptr %8, align 1, !tbaa !12
  br label %87

87:                                               ; preds = %83, %59
  %88 = load i8, ptr %8, align 1, !tbaa !12
  %89 = sext i8 %88 to i32
  %90 = icmp eq i32 %89, 78
  br i1 %90, label %91, label %94

91:                                               ; preds = %87
  %92 = load ptr, ptr %6, align 8, !tbaa !3
  %93 = call noundef nonnull align 8 dereferenceable(8) ptr @_ZN9__gnu_cxx17__normal_iteratorIPKcNSt7__cxx1112basic_stringIcSt11char_traitsIcESaIcEEEEppEv(ptr noundef nonnull align 8 dereferenceable(8) %92) #9
  store i1 true, ptr %4, align 1
  store i32 1, ptr %9, align 4
  br label %95

94:                                               ; preds = %87
  store i1 false, ptr %4, align 1
  store i32 1, ptr %9, align 4
  br label %95

95:                                               ; preds = %94, %91, %82, %54, %50, %38
  call void @llvm.lifetime.end.p0(i64 1, ptr %8) #9
  br label %96

96:                                               ; preds = %95, %13
  %97 = load i1, ptr %4, align 1
  ret i1 %97
}