; Function Attrs: mustprogress uwtable
define hidden noundef zeroext i1 @_ZN5boost3log11v2_mt_posix5sinks9anonymous25parse_counter_placeholderERN9__gnu_cxx17__normal_iteratorIPKcNSt7__cxx1112basic_stringIcSt11char_traitsIcESaIcEEEEESE_Rj(ptr noundef nonnull align 8 dereferenceable(8) %0, ptr %1, ptr noundef nonnull align 4 dereferenceable(4) %2) local_unnamed_addr #4 {
  %4 = alloca %"class.__gnu_cxx::__normal_iterator", align 8
  store ptr %1, ptr %4, align 8
  %5 = load ptr, ptr %0, align 8, !tbaa !17
  %6 = icmp eq ptr %5, %1
  br i1 %6, label %_ZN5boost6spirit2qi12extract_uintIjLj10ELj1ELin1ELb0ELb0EE4callIN9__gnu_cxx17__normal_iteratorIPKcNSt7__cxx1112basic_stringIcSt11char_traitsIcESaIcEEEEEEEbRT_RKSG_Rj.exit.thread, label %7

7:                                                ; preds = %3
  %8 = load i8, ptr %5, align 1, !tbaa !15
  switch i8 %8, label %14 [
    i8 48, label %9
    i8 45, label %9
    i8 43, label %9
    i8 32, label %9
  ]

9:                                                ; preds = %7, %7, %7, %7
  %10 = getelementptr inbounds nuw i8, ptr %5, i64 1
  store ptr %10, ptr %0, align 8, !tbaa !18
  %11 = icmp eq ptr %10, %1
  br i1 %11, label %_ZN5boost6spirit2qi12extract_uintIjLj10ELj1ELin1ELb0ELb0EE4callIN9__gnu_cxx17__normal_iteratorIPKcNSt7__cxx1112basic_stringIcSt11char_traitsIcESaIcEEEEEEEbRT_RKSG_Rj.exit.thread, label %12

12:                                               ; preds = %9
  %13 = load i8, ptr %10, align 1, !tbaa !15
  br label %14

14:                                               ; preds = %7, %12
  %15 = phi ptr [ %10, %12 ], [ %5, %7 ]
  %.0 = phi i8 [ %13, %12 ], [ %8, %7 ]
  %16 = sext i8 %.0 to i32
  %isdigittmp.i = add nsw i32 %16, -48
  %isdigit.i = icmp ult i32 %isdigittmp.i, 10
  br i1 %isdigit.i, label %17, label %24

17:                                               ; preds = %14
  %18 = call noundef zeroext i1 @_ZN5boost6spirit2qi6detail11extract_intIjLj10ELj1ELin1ENS2_20positive_accumulatorILj10EEELb0ELb0EE10parse_mainIN9__gnu_cxx17__normal_iteratorIPKcNSt7__cxx1112basic_stringIcSt11char_traitsIcESaIcEEEEEjEEbRT_RKSJ_RT0_(ptr noundef nonnull align 8 dereferenceable(8) %0, ptr noundef nonnull align 8 dereferenceable(8) %4, ptr noundef nonnull align 4 dereferenceable(4) %2)
  br i1 %18, label %_ZN5boost6spirit2qi12extract_uintIjLj10ELj1ELin1ELb0ELb0EE4callIN9__gnu_cxx17__normal_iteratorIPKcNSt7__cxx1112basic_stringIcSt11char_traitsIcESaIcEEEEEEEbRT_RKSG_Rj.exit, label %_ZN5boost6spirit2qi12extract_uintIjLj10ELj1ELin1ELb0ELb0EE4callIN9__gnu_cxx17__normal_iteratorIPKcNSt7__cxx1112basic_stringIcSt11char_traitsIcESaIcEEEEEEEbRT_RKSG_Rj.exit.thread.sink.split

_ZN5boost6spirit2qi12extract_uintIjLj10ELj1ELin1ELb0ELb0EE4callIN9__gnu_cxx17__normal_iteratorIPKcNSt7__cxx1112basic_stringIcSt11char_traitsIcESaIcEEEEEEEbRT_RKSG_Rj.exit: ; preds = %17
  %19 = load ptr, ptr %0, align 8, !tbaa !17
  %20 = load ptr, ptr %4, align 8, !tbaa !17
  %21 = icmp eq ptr %19, %20
  br i1 %21, label %_ZN5boost6spirit2qi12extract_uintIjLj10ELj1ELin1ELb0ELb0EE4callIN9__gnu_cxx17__normal_iteratorIPKcNSt7__cxx1112basic_stringIcSt11char_traitsIcESaIcEEEEEEEbRT_RKSG_Rj.exit.thread, label %22

22:                                               ; preds = %_ZN5boost6spirit2qi12extract_uintIjLj10ELj1ELin1ELb0ELb0EE4callIN9__gnu_cxx17__normal_iteratorIPKcNSt7__cxx1112basic_stringIcSt11char_traitsIcESaIcEEEEEEEbRT_RKSG_Rj.exit
  %23 = load i8, ptr %19, align 1, !tbaa !15
  br label %24

24:                                               ; preds = %22, %14
  %25 = phi ptr [ %20, %22 ], [ %1, %14 ]
  %26 = phi ptr [ %19, %22 ], [ %15, %14 ]
  %.1 = phi i8 [ %23, %22 ], [ %.0, %14 ]
  %27 = icmp eq i8 %.1, 46
  br i1 %27, label %.preheader, label %32

.preheader:                                       ; preds = %24, %28
  %.pn = phi ptr [ %storemerge, %28 ], [ %26, %24 ]
  %storemerge = getelementptr inbounds nuw i8, ptr %.pn, i64 1
  store ptr %storemerge, ptr %0, align 8, !tbaa !18
  %.not = icmp eq ptr %storemerge, %25
  br i1 %.not, label %_ZN5boost6spirit2qi12extract_uintIjLj10ELj1ELin1ELb0ELb0EE4callIN9__gnu_cxx17__normal_iteratorIPKcNSt7__cxx1112basic_stringIcSt11char_traitsIcESaIcEEEEEEEbRT_RKSG_Rj.exit.thread, label %28

28:                                               ; preds = %.preheader
  %29 = load i8, ptr %storemerge, align 1, !tbaa !15
  %30 = sext i8 %29 to i32
  %isdigittmp.i33 = add nsw i32 %30, -48
  %isdigit.i34 = icmp ult i32 %isdigittmp.i33, 10
  br i1 %isdigit.i34, label %.preheader, label %.critedge, !llvm.loop !20

.critedge:                                        ; preds = %28
  %31 = load i8, ptr %storemerge, align 1, !tbaa !15
  br label %32

32:                                               ; preds = %.critedge, %24
  %33 = phi ptr [ %storemerge, %.critedge ], [ %26, %24 ]
  %.2 = phi i8 [ %31, %.critedge ], [ %.1, %24 ]
  %34 = icmp eq i8 %.2, 78
  br i1 %34, label %35, label %_ZN5boost6spirit2qi12extract_uintIjLj10ELj1ELin1ELb0ELb0EE4callIN9__gnu_cxx17__normal_iteratorIPKcNSt7__cxx1112basic_stringIcSt11char_traitsIcESaIcEEEEEEEbRT_RKSG_Rj.exit.thread

35:                                               ; preds = %32
  %36 = getelementptr inbounds nuw i8, ptr %33, i64 1
  br label %_ZN5boost6spirit2qi12extract_uintIjLj10ELj1ELin1ELb0ELb0EE4callIN9__gnu_cxx17__normal_iteratorIPKcNSt7__cxx1112basic_stringIcSt11char_traitsIcESaIcEEEEEEEbRT_RKSG_Rj.exit.thread.sink.split

_ZN5boost6spirit2qi12extract_uintIjLj10ELj1ELin1ELb0ELb0EE4callIN9__gnu_cxx17__normal_iteratorIPKcNSt7__cxx1112basic_stringIcSt11char_traitsIcESaIcEEEEEEEbRT_RKSG_Rj.exit.thread.sink.split: ; preds = %17, %35
  %.sink = phi ptr [ %36, %35 ], [ %15, %17 ]
  %.031.ph = phi i1 [ true, %35 ], [ false, %17 ]
  store ptr %.sink, ptr %0, align 8, !tbaa !17
  br label %_ZN5boost6spirit2qi12extract_uintIjLj10ELj1ELin1ELb0ELb0EE4callIN9__gnu_cxx17__normal_iteratorIPKcNSt7__cxx1112basic_stringIcSt11char_traitsIcESaIcEEEEEEEbRT_RKSG_Rj.exit.thread

_ZN5boost6spirit2qi12extract_uintIjLj10ELj1ELin1ELb0ELb0EE4callIN9__gnu_cxx17__normal_iteratorIPKcNSt7__cxx1112basic_stringIcSt11char_traitsIcESaIcEEEEEEEbRT_RKSG_Rj.exit.thread: ; preds = %.preheader, %_ZN5boost6spirit2qi12extract_uintIjLj10ELj1ELin1ELb0ELb0EE4callIN9__gnu_cxx17__normal_iteratorIPKcNSt7__cxx1112basic_stringIcSt11char_traitsIcESaIcEEEEEEEbRT_RKSG_Rj.exit.thread.sink.split, %9, %_ZN5boost6spirit2qi12extract_uintIjLj10ELj1ELin1ELb0ELb0EE4callIN9__gnu_cxx17__normal_iteratorIPKcNSt7__cxx1112basic_stringIcSt11char_traitsIcESaIcEEEEEEEbRT_RKSG_Rj.exit, %32, %3
  %.031 = phi i1 [ false, %3 ], [ false, %9 ], [ false, %_ZN5boost6spirit2qi12extract_uintIjLj10ELj1ELin1ELb0ELb0EE4callIN9__gnu_cxx17__normal_iteratorIPKcNSt7__cxx1112basic_stringIcSt11char_traitsIcESaIcEEEEEEEbRT_RKSG_Rj.exit ], [ false, %32 ], [ %.031.ph, %_ZN5boost6spirit2qi12extract_uintIjLj10ELj1ELin1ELb0ELb0EE4callIN9__gnu_cxx17__normal_iteratorIPKcNSt7__cxx1112basic_stringIcSt11char_traitsIcESaIcEEEEEEEbRT_RKSG_Rj.exit.thread.sink.split ], [ false, %.preheader ]
  ret i1 %.031
}